target datalayout = "e-m:e-p270:32:32-p271:32:32-p272:64:64-i64:64-i128:128-f80:128-n8:16:32:64-S128"
target triple = "x86_64-unknown-linux-gnu"

module asm ".section \22.export_symbol\22,\22a\22 ; __export_symbol_mdiobus_setup_mdiodev_from_board_info: ; .asciz \22\22 ; .asciz \22\22 ; .balign 8 ; .quad mdiobus_setup_mdiodev_from_board_info ; .previous"
module asm ".section \22.export_symbol\22,\22a\22 ; __export_symbol_mdiobus_register_board_info: ; .asciz \22\22 ; .asciz \22\22 ; .balign 8 ; .quad mdiobus_register_board_info ; .previous"

%struct.mutex = type { %struct.atomic64_t, %struct.raw_spinlock, %struct.optimistic_spin_queue, %struct.list_head }
%struct.atomic64_t = type { i64 }
%struct.raw_spinlock = type { %struct.qspinlock }
%struct.qspinlock = type { %union.anon }
%union.anon = type { %struct.atomic_t }
%struct.atomic_t = type { i32 }
%struct.optimistic_spin_queue = type { %struct.atomic_t }
%struct.list_head = type { ptr, ptr }

@mdio_board_lock = internal global %struct.mutex { %struct.atomic64_t zeroinitializer, %struct.raw_spinlock zeroinitializer, %struct.optimistic_spin_queue zeroinitializer, %struct.list_head { ptr getelementptr (i8, ptr @mdio_board_lock, i64 16), ptr getelementptr (i8, ptr @mdio_board_lock, i64 16) } }, align 8
@mdio_board_list = internal global %struct.list_head { ptr @mdio_board_list, ptr @mdio_board_list }, align 8
@__UNIQUE_ID___addressable_mdiobus_setup_mdiodev_from_board_info434 = internal global ptr @mdiobus_setup_mdiodev_from_board_info, section ".discard.addressable", align 8
@__UNIQUE_ID___addressable_mdiobus_register_board_info435 = internal global ptr @mdiobus_register_board_info, section ".discard.addressable", align 8
@llvm.compiler.used = appending global [2 x ptr] [ptr @__UNIQUE_ID___addressable_mdiobus_register_board_info435, ptr @__UNIQUE_ID___addressable_mdiobus_setup_mdiodev_from_board_info434], section "llvm.metadata"

; Function Attrs: fn_ret_thunk_extern nounwind null_pointer_is_valid
define dso_local void @mdiobus_setup_mdiodev_from_board_info(ptr noundef %0, ptr nocapture noundef readonly %1) #0 align 16 {
  tail call void @mutex_lock(ptr noundef nonnull @mdio_board_lock) #5
  %3 = load ptr, ptr @mdio_board_list, align 8
  %4 = icmp eq ptr %3, @mdio_board_list
  br i1 %4, label %18, label %5

5:                                                ; preds = %2
  %6 = getelementptr inbounds i8, ptr %0, i64 16
  br label %7

7:                                                ; preds = %16, %5
  %8 = phi ptr [ %3, %5 ], [ %9, %16 ]
  %9 = load ptr, ptr %8, align 8
  %10 = getelementptr inbounds i8, ptr %8, i64 16
  %11 = load ptr, ptr %10, align 8
  %12 = tail call i32 @strcmp(ptr noundef %6, ptr noundef %11) #5
  %13 = icmp eq i32 %12, 0
  br i1 %13, label %14, label %16

14:                                               ; preds = %7
  tail call void @mutex_unlock(ptr noundef nonnull @mdio_board_lock) #5
  %15 = tail call i32 %1(ptr noundef %0, ptr noundef %10) #5
  tail call void @mutex_lock(ptr noundef nonnull @mdio_board_lock) #5
  br label %16

16:                                               ; preds = %14, %7
  %17 = icmp eq ptr %9, @mdio_board_list
  br i1 %17, label %18, label %7, !llvm.loop !5

18:                                               ; preds = %16, %2
  tail call void @mutex_unlock(ptr noundef nonnull @mdio_board_lock) #5
  ret void
}

; Function Attrs: null_pointer_is_valid
declare dso_local void @mutex_lock(ptr noundef) local_unnamed_addr #1

; Function Attrs: mustprogress nofree nounwind null_pointer_is_valid willreturn memory(argmem: read)
declare dso_local i32 @strcmp(ptr nocapture noundef, ptr nocapture noundef) local_unnamed_addr #2

; Function Attrs: null_pointer_is_valid
declare dso_local void @mutex_unlock(ptr noundef) local_unnamed_addr #1

; Function Attrs: fn_ret_thunk_extern nounwind null_pointer_is_valid
define dso_local noundef i32 @mdiobus_register_board_info(ptr nocapture noundef readonly %0, i32 noundef %1) #0 align 16 {
  %3 = zext i32 %1 to i64
  %4 = mul nuw nsw i64 %3, 72
  %5 = tail call noalias align 8 ptr @__kmalloc(i64 noundef %4, i32 noundef 3520) #6
  %6 = icmp eq ptr %5, null
  br i1 %6, label %20, label %7

7:                                                ; preds = %2
  %8 = icmp eq i32 %1, 0
  br i1 %8, label %20, label %9

9:                                                ; preds = %9, %7
  %10 = phi i32 [ %16, %9 ], [ 0, %7 ]
  %11 = phi ptr [ %17, %9 ], [ %5, %7 ]
  %12 = phi ptr [ %18, %9 ], [ %0, %7 ]
  %13 = getelementptr inbounds i8, ptr %11, i64 16
  tail call void @llvm.memcpy.p0.p0.i64(ptr noundef align 8 dereferenceable(56) %13, ptr noundef align 8 dereferenceable(56) %12, i64 56, i1 false)
  tail call void @mutex_lock(ptr noundef nonnull @mdio_board_lock) #5
  %14 = load ptr, ptr getelementptr inbounds (%struct.list_head, ptr @mdio_board_list, i64 0, i32 1), align 8
  store ptr %11, ptr getelementptr inbounds (%struct.list_head, ptr @mdio_board_list, i64 0, i32 1), align 8
  store ptr @mdio_board_list, ptr %11, align 8
  %15 = getelementptr inbounds i8, ptr %11, i64 8
  store ptr %14, ptr %15, align 8
  store volatile ptr %11, ptr %14, align 8
  tail call void @mutex_unlock(ptr noundef nonnull @mdio_board_lock) #5
  %16 = add nuw i32 %10, 1
  %17 = getelementptr i8, ptr %11, i64 72
  %18 = getelementptr i8, ptr %12, i64 56
  %19 = icmp eq i32 %16, %1
  br i1 %19, label %20, label %9, !llvm.loop !8

20:                                               ; preds = %9, %7, %2
  %21 = phi i32 [ -12, %2 ], [ 0, %7 ], [ 0, %9 ]
  ret i32 %21
}

; Function Attrs: nocallback nofree nounwind willreturn memory(argmem: readwrite)
declare void @llvm.memcpy.p0.p0.i64(ptr noalias nocapture writeonly, ptr noalias nocapture readonly, i64, i1 immarg) #3

; Function Attrs: null_pointer_is_valid allocsize(0)
declare dso_local noalias ptr @__kmalloc(i64 noundef, i32 noundef) local_unnamed_addr #4


!llvm.module.flags = !{!0, !1, !2, !3, !4}

!0 = !{i32 1, !"wchar_size", i32 2}
!1 = !{i32 8, !"cf-protection-branch", i32 1}
!2 = !{i32 4, !"function_return_thunk_extern", i32 1}
!3 = !{i32 4, !"indirect_branch_cs_prefix", i32 1}
!4 = !{i32 4, !"SkipRaxSetup", i32 1}
!5 = distinct !{!5, !6, !7}
!6 = !{!"llvm.loop.mustprogress"}
!7 = !{!"llvm.loop.unroll.disable"}
!8 = distinct !{!8, !6, !7}
